target datalayout = "e-m:e-p270:32:32-p271:32:32-p272:64:64-i64:64-i128:128-f80:128-n8:16:32:64-S128"
target triple = "x86_64-pc-linux-gnu"

%"class.std::shared_ptr.7" = type { %"class.std::__shared_ptr.8" }
%"class.std::__shared_ptr.8" = type { ptr, %"class.std::__shared_count" }
%"class.std::__shared_count" = type { ptr }
%"class.std::shared_ptr.10" = type { %"class.std::__shared_ptr.11" }
%"class.std::__shared_ptr.11" = type { ptr, %"class.std::__shared_count" }
%"class.arrow::(anonymous namespace)::RangeDataEqualsImpl" = type <{ ptr, i8, [7 x i8], ptr, ptr, i64, i64, i64, i8, [7 x i8] }>
%"struct.arrow::ArrayData" = type { %"class.std::shared_ptr.7", i64, %"struct.std::atomic.39", i64, %"class.std::vector.41", %"class.std::vector.46", %"class.std::shared_ptr", %"class.std::shared_ptr.51" }
%"struct.std::atomic.39" = type { %"struct.std::__atomic_base.40" }
%"struct.std::__atomic_base.40" = type { i64 }
%"class.std::vector.41" = type { %"struct.std::_Vector_base.42" }
%"struct.std::_Vector_base.42" = type { %"struct.std::_Vector_base<std::shared_ptr<arrow::Buffer>, std::allocator<std::shared_ptr<arrow::Buffer>>>::_Vector_impl" }
%"struct.std::_Vector_base<std::shared_ptr<arrow::Buffer>, std::allocator<std::shared_ptr<arrow::Buffer>>>::_Vector_impl" = type { %"struct.std::_Vector_base<std::shared_ptr<arrow::Buffer>, std::allocator<std::shared_ptr<arrow::Buffer>>>::_Vector_impl_data" }
%"struct.std::_Vector_base<std::shared_ptr<arrow::Buffer>, std::allocator<std::shared_ptr<arrow::Buffer>>>::_Vector_impl_data" = type { ptr, ptr, ptr }
%"class.std::vector.46" = type { %"struct.std::_Vector_base.47" }
%"struct.std::_Vector_base.47" = type { %"struct.std::_Vector_base<std::shared_ptr<arrow::ArrayData>, std::allocator<std::shared_ptr<arrow::ArrayData>>>::_Vector_impl" }
%"struct.std::_Vector_base<std::shared_ptr<arrow::ArrayData>, std::allocator<std::shared_ptr<arrow::ArrayData>>>::_Vector_impl" = type { %"struct.std::_Vector_base<std::shared_ptr<arrow::ArrayData>, std::allocator<std::shared_ptr<arrow::ArrayData>>>::_Vector_impl_data" }
%"struct.std::_Vector_base<std::shared_ptr<arrow::ArrayData>, std::allocator<std::shared_ptr<arrow::ArrayData>>>::_Vector_impl_data" = type { ptr, ptr, ptr }
%"class.std::shared_ptr" = type { %"class.std::__shared_ptr" }
%"class.std::__shared_ptr" = type { ptr, %"class.std::__shared_count" }
%"class.std::shared_ptr.51" = type { %"class.std::__shared_ptr.52" }
%"class.std::__shared_ptr.52" = type { ptr, %"class.std::__shared_count" }

; Function Attrs: mustprogress nounwind uwtable
define linkonce_odr noundef ptr @_ZNKSt12__shared_ptrIN5arrow8DataTypeELN9__gnu_cxx12_Lock_policyE2EE3getEv(ptr noundef nonnull align 8 dereferenceable(16) %0) #0 comdat align 2 {
  %2 = alloca ptr, align 8
  store ptr %0, ptr %2, align 8, !tbaa !117
  %3 = load ptr, ptr %2, align 8
  %4 = getelementptr inbounds nuw %"class.std::__shared_ptr.8", ptr %3, i32 0, i32 0
  %5 = load ptr, ptr %4, align 8, !tbaa !193
  ret ptr %5
}

; Function Attrs: mustprogress nounwind uwtable
define linkonce_odr noundef ptr @_ZNKSt19__shared_ptr_accessIN5arrow8DataTypeELN9__gnu_cxx12_Lock_policyE2ELb0ELb0EE6_M_getEv(ptr noundef nonnull align 1 dereferenceable(1) %0) #0 comdat align 2 {
  %2 = alloca ptr, align 8
  store ptr %0, ptr %2, align 8, !tbaa !99
  %3 = load ptr, ptr %2, align 8
  %4 = call noundef ptr @_ZNKSt12__shared_ptrIN5arrow8DataTypeELN9__gnu_cxx12_Lock_policyE2EE3getEv(ptr noundef nonnull align 8 dereferenceable(16) %3) #20
  ret ptr %4
}

; Function Attrs: mustprogress nounwind uwtable
define linkonce_odr noundef nonnull align 8 dereferenceable(72) ptr @_ZNKSt19__shared_ptr_accessIN5arrow8DataTypeELN9__gnu_cxx12_Lock_policyE2ELb0ELb0EEdeEv(ptr noundef nonnull align 1 dereferenceable(1) %0) #0 comdat align 2 {
  %2 = alloca ptr, align 8
  store ptr %0, ptr %2, align 8, !tbaa !99
  %3 = load ptr, ptr %2, align 8
  br label %4

4:                                                ; preds = %1
  br label %5

5:                                                ; preds = %4
  br label %6

6:                                                ; preds = %5
  %7 = call noundef ptr @_ZNKSt19__shared_ptr_accessIN5arrow8DataTypeELN9__gnu_cxx12_Lock_policyE2ELb0ELb0EE6_M_getEv(ptr noundef nonnull align 1 dereferenceable(1) %3) #20
  ret ptr %7
}

; Function Attrs: mustprogress nounwind uwtable
define linkonce_odr noundef nonnull align 8 dereferenceable(16) ptr @_ZNKSt6vectorISt10shared_ptrIN5arrow6BufferEESaIS3_EEixEm(ptr noundef nonnull align 8 dereferenceable(24) %0, i64 noundef %1) #0 comdat align 2 {
  %3 = alloca ptr, align 8
  %4 = alloca i64, align 8
  store ptr %0, ptr %3, align 8, !tbaa !212
  store i64 %1, ptr %4, align 8, !tbaa !43
  %5 = load ptr, ptr %3, align 8
  %6 = getelementptr inbounds nuw %"struct.std::_Vector_base.42", ptr %5, i32 0, i32 0
  %7 = getelementptr inbounds nuw %"struct.std::_Vector_base<std::shared_ptr<arrow::Buffer>, std::allocator<std::shared_ptr<arrow::Buffer>>>::_Vector_impl_data", ptr %6, i32 0, i32 0
  %8 = load ptr, ptr %7, align 8, !tbaa !214
  %9 = load i64, ptr %4, align 8, !tbaa !43
  %10 = getelementptr inbounds nuw %"class.std::shared_ptr.10", ptr %8, i64 %9
  ret ptr %10
}

; Function Attrs: mustprogress uwtable
define internal noundef zeroext i1 @_ZN5arrow12_GLOBAL__N_119RangeDataEqualsImpl7CompareEv(ptr noundef nonnull align 8 dereferenceable(57) %0) #1 align 2 {
  %2 = alloca i1, align 1
  %3 = alloca ptr, align 8
  store ptr %0, ptr %3, align 8, !tbaa !182
  %4 = load ptr, ptr %3, align 8
  %5 = getelementptr inbounds nuw %"class.arrow::(anonymous namespace)::RangeDataEqualsImpl", ptr %4, i32 0, i32 5
  %6 = load i64, ptr %5, align 8, !tbaa !186
  %7 = icmp eq i64 %6, 0
  br i1 %7, label %8, label %38

8:                                                ; preds = %1
  %9 = getelementptr inbounds nuw %"class.arrow::(anonymous namespace)::RangeDataEqualsImpl", ptr %4, i32 0, i32 6
  %10 = load i64, ptr %9, align 8, !tbaa !187
  %11 = icmp eq i64 %10, 0
  br i1 %11, label %12, label %38

12:                                               ; preds = %8
  %13 = getelementptr inbounds nuw %"class.arrow::(anonymous namespace)::RangeDataEqualsImpl", ptr %4, i32 0, i32 7
  %14 = load i64, ptr %13, align 8, !tbaa !188
  %15 = getelementptr inbounds nuw %"class.arrow::(anonymous namespace)::RangeDataEqualsImpl", ptr %4, i32 0, i32 3
  %16 = load ptr, ptr %15, align 8, !tbaa !190
  %17 = getelementptr inbounds nuw %"struct.arrow::ArrayData", ptr %16, i32 0, i32 1
  %18 = load i64, ptr %17, align 8, !tbaa !149
  %19 = icmp eq i64 %14, %18
  br i1 %19, label %20, label %38

20:                                               ; preds = %12
  %21 = getelementptr inbounds nuw %"class.arrow::(anonymous namespace)::RangeDataEqualsImpl", ptr %4, i32 0, i32 7
  %22 = load i64, ptr %21, align 8, !tbaa !188
  %23 = getelementptr inbounds nuw %"class.arrow::(anonymous namespace)::RangeDataEqualsImpl", ptr %4, i32 0, i32 4
  %24 = load ptr, ptr %23, align 8, !tbaa !191
  %25 = getelementptr inbounds nuw %"struct.arrow::ArrayData", ptr %24, i32 0, i32 1
  %26 = load i64, ptr %25, align 8, !tbaa !149
  %27 = icmp eq i64 %22, %26
  br i1 %27, label %28, label %38

28:                                               ; preds = %20
  %29 = getelementptr inbounds nuw %"class.arrow::(anonymous namespace)::RangeDataEqualsImpl", ptr %4, i32 0, i32 3
  %30 = load ptr, ptr %29, align 8, !tbaa !190
  %31 = call noundef i64 @_ZNK5arrow9ArrayData12GetNullCountEv(ptr noundef nonnull align 8 dereferenceable(120) %30)
  %32 = getelementptr inbounds nuw %"class.arrow::(anonymous namespace)::RangeDataEqualsImpl", ptr %4, i32 0, i32 4
  %33 = load ptr, ptr %32, align 8, !tbaa !191
  %34 = call noundef i64 @_ZNK5arrow9ArrayData12GetNullCountEv(ptr noundef nonnull align 8 dereferenceable(120) %33)
  %35 = icmp ne i64 %31, %34
  br i1 %35, label %36, label %37

36:                                               ; preds = %28
  store i1 false, ptr %2, align 1
  br label %71

37:                                               ; preds = %28
  br label %38

38:                                               ; preds = %37, %20, %12, %8, %1
  %39 = getelementptr inbounds nuw %"class.arrow::(anonymous namespace)::RangeDataEqualsImpl", ptr %4, i32 0, i32 3
  %40 = load ptr, ptr %39, align 8, !tbaa !190
  %41 = getelementptr inbounds nuw %"struct.arrow::ArrayData", ptr %40, i32 0, i32 4
  %42 = call noundef nonnull align 8 dereferenceable(16) ptr @_ZNKSt6vectorISt10shared_ptrIN5arrow6BufferEESaIS3_EEixEm(ptr noundef nonnull align 8 dereferenceable(24) %41, i64 noundef 0) #20
  %43 = getelementptr inbounds nuw %"class.arrow::(anonymous namespace)::RangeDataEqualsImpl", ptr %4, i32 0, i32 3
  %44 = load ptr, ptr %43, align 8, !tbaa !190
  %45 = getelementptr inbounds nuw %"struct.arrow::ArrayData", ptr %44, i32 0, i32 3
  %46 = load i64, ptr %45, align 8, !tbaa !192
  %47 = getelementptr inbounds nuw %"class.arrow::(anonymous namespace)::RangeDataEqualsImpl", ptr %4, i32 0, i32 5
  %48 = load i64, ptr %47, align 8, !tbaa !186
  %49 = add nsw i64 %46, %48
  %50 = getelementptr inbounds nuw %"class.arrow::(anonymous namespace)::RangeDataEqualsImpl", ptr %4, i32 0, i32 4
  %51 = load ptr, ptr %50, align 8, !tbaa !191
  %52 = getelementptr inbounds nuw %"struct.arrow::ArrayData", ptr %51, i32 0, i32 4
  %53 = call noundef nonnull align 8 dereferenceable(16) ptr @_ZNKSt6vectorISt10shared_ptrIN5arrow6BufferEESaIS3_EEixEm(ptr noundef nonnull align 8 dereferenceable(24) %52, i64 noundef 0) #20
  %54 = getelementptr inbounds nuw %"class.arrow::(anonymous namespace)::RangeDataEqualsImpl", ptr %4, i32 0, i32 4
  %55 = load ptr, ptr %54, align 8, !tbaa !191
  %56 = getelementptr inbounds nuw %"struct.arrow::ArrayData", ptr %55, i32 0, i32 3
  %57 = load i64, ptr %56, align 8, !tbaa !192
  %58 = getelementptr inbounds nuw %"class.arrow::(anonymous namespace)::RangeDataEqualsImpl", ptr %4, i32 0, i32 6
  %59 = load i64, ptr %58, align 8, !tbaa !187
  %60 = add nsw i64 %57, %59
  %61 = getelementptr inbounds nuw %"class.arrow::(anonymous namespace)::RangeDataEqualsImpl", ptr %4, i32 0, i32 7
  %62 = load i64, ptr %61, align 8, !tbaa !188
  %63 = call noundef zeroext i1 @_ZN5arrow8internal20OptionalBitmapEqualsERKSt10shared_ptrINS_6BufferEElS5_ll(ptr noundef nonnull align 8 dereferenceable(16) %42, i64 noundef %49, ptr noundef nonnull align 8 dereferenceable(16) %53, i64 noundef %60, i64 noundef %62)
  br i1 %63, label %65, label %64

64:                                               ; preds = %38
  store i1 false, ptr %2, align 1
  br label %71

65:                                               ; preds = %38
  %66 = getelementptr inbounds nuw %"class.arrow::(anonymous namespace)::RangeDataEqualsImpl", ptr %4, i32 0, i32 3
  %67 = load ptr, ptr %66, align 8, !tbaa !190
  %68 = getelementptr inbounds nuw %"struct.arrow::ArrayData", ptr %67, i32 0, i32 0
  %69 = call noundef nonnull align 8 dereferenceable(72) ptr @_ZNKSt19__shared_ptr_accessIN5arrow8DataTypeELN9__gnu_cxx12_Lock_policyE2ELb0ELb0EEdeEv(ptr noundef nonnull align 1 dereferenceable(1) %68) #20
  %70 = call noundef zeroext i1 @_ZN5arrow12_GLOBAL__N_119RangeDataEqualsImpl15CompareWithTypeERKNS_8DataTypeE(ptr noundef nonnull align 8 dereferenceable(57) %4, ptr noundef nonnull align 8 dereferenceable(72) %69)
  store i1 %70, ptr %2, align 1
  br label %71

71:                                               ; preds = %65, %64, %36
  %72 = load i1, ptr %2, align 1
  ret i1 %72
}