; Function Attrs: mustprogress uwtable
define internal fastcc noundef zeroext i1 @_ZN5arrow12_GLOBAL__N_119RangeDataEqualsImpl7CompareEv(ptr noundef nonnull align 8 dereferenceable(57) %0) unnamed_addr #1 align 2 {
  %2 = getelementptr inbounds nuw i8, ptr %0, i64 32
  %3 = load i64, ptr %2, align 8, !tbaa !88
  %4 = icmp eq i64 %3, 0
  %5 = getelementptr inbounds nuw i8, ptr %0, i64 40
  %6 = load i64, ptr %5, align 8
  %7 = icmp eq i64 %6, 0
  %or.cond = select i1 %4, i1 %7, i1 false
  br i1 %or.cond, label %8, label %26

8:                                                ; preds = %1
  %9 = getelementptr inbounds nuw i8, ptr %0, i64 48
  %10 = load i64, ptr %9, align 8, !tbaa !90
  %11 = getelementptr inbounds nuw i8, ptr %0, i64 16
  %12 = load ptr, ptr %11, align 8, !tbaa !646
  %13 = getelementptr inbounds nuw i8, ptr %12, i64 16
  %14 = load i64, ptr %13, align 8, !tbaa !57
  %15 = icmp eq i64 %10, %14
  br i1 %15, label %16, label %26

16:                                               ; preds = %8
  %17 = getelementptr inbounds nuw i8, ptr %0, i64 24
  %18 = load ptr, ptr %17, align 8, !tbaa !647
  %19 = getelementptr inbounds nuw i8, ptr %18, i64 16
  %20 = load i64, ptr %19, align 8, !tbaa !57
  %21 = icmp eq i64 %10, %20
  br i1 %21, label %22, label %26

22:                                               ; preds = %16
  %23 = tail call noundef i64 @_ZNK5arrow9ArrayData12GetNullCountEv(ptr noundef nonnull align 8 dereferenceable(120) %12)
  %24 = load ptr, ptr %17, align 8, !tbaa !647
  %25 = tail call noundef i64 @_ZNK5arrow9ArrayData12GetNullCountEv(ptr noundef nonnull align 8 dereferenceable(120) %24)
  %.not = icmp eq i64 %23, %25
  br i1 %.not, label %._crit_edge, label %50

._crit_edge:                                      ; preds = %22
  %.pre = load i64, ptr %2, align 8, !tbaa !88
  %.pre5 = load i64, ptr %5, align 8, !tbaa !89
  br label %26

26:                                               ; preds = %._crit_edge, %16, %8, %1
  %27 = phi i64 [ %.pre5, %._crit_edge ], [ 0, %16 ], [ 0, %8 ], [ %6, %1 ]
  %28 = phi i64 [ %.pre, %._crit_edge ], [ 0, %16 ], [ 0, %8 ], [ %3, %1 ]
  %29 = getelementptr inbounds nuw i8, ptr %0, i64 16
  %30 = load ptr, ptr %29, align 8, !tbaa !646
  %31 = getelementptr inbounds nuw i8, ptr %30, i64 40
  %32 = load ptr, ptr %31, align 8, !tbaa !648
  %33 = getelementptr inbounds nuw i8, ptr %30, i64 32
  %34 = load i64, ptr %33, align 8, !tbaa !649
  %35 = add nsw i64 %28, %34
  %36 = getelementptr inbounds nuw i8, ptr %0, i64 24
  %37 = load ptr, ptr %36, align 8, !tbaa !647
  %38 = getelementptr inbounds nuw i8, ptr %37, i64 40
  %39 = load ptr, ptr %38, align 8, !tbaa !648
  %40 = getelementptr inbounds nuw i8, ptr %37, i64 32
  %41 = load i64, ptr %40, align 8, !tbaa !649
  %42 = add nsw i64 %27, %41
  %43 = getelementptr inbounds nuw i8, ptr %0, i64 48
  %44 = load i64, ptr %43, align 8, !tbaa !90
  %45 = tail call noundef zeroext i1 @_ZN5arrow8internal20OptionalBitmapEqualsERKSt10shared_ptrINS_6BufferEElS5_ll(ptr noundef nonnull align 8 dereferenceable(16) %32, i64 noundef %35, ptr noundef nonnull align 8 dereferenceable(16) %39, i64 noundef %42, i64 noundef %44)
  br i1 %45, label %46, label %50

46:                                               ; preds = %26
  %47 = load ptr, ptr %29, align 8, !tbaa !646
  %48 = load ptr, ptr %47, align 8, !tbaa !38
  %49 = tail call fastcc noundef zeroext i1 @_ZN5arrow12_GLOBAL__N_119RangeDataEqualsImpl15CompareWithTypeERKNS_8DataTypeE(ptr noundef nonnull align 8 dereferenceable(57) %0, ptr noundef nonnull align 8 dereferenceable(72) %48)
  br label %50

50:                                               ; preds = %26, %22, %46
  %.0 = phi i1 [ %49, %46 ], [ false, %22 ], [ false, %26 ]
  ret i1 %.0
}